; Function Attrs: mustprogress nounwind uwtable
define dso_local noundef zeroext i1 @_ZN5clang20GenerateModuleAction22shouldEraseOutputFilesEv(ptr noundef nonnull align 8 dereferenceable(104) %0) unnamed_addr #0 align 2 {
  %2 = getelementptr inbounds nuw i8, ptr %0, i64 96
  %3 = load ptr, ptr %2, align 8
  %4 = getelementptr inbounds nuw i8, ptr %3, i64 16
  %5 = load ptr, ptr %4, align 8
  %6 = getelementptr inbounds nuw i8, ptr %5, i64 144
  %7 = load ptr, ptr %6, align 8
  %8 = load i64, ptr %7, align 8
  %9 = and i64 %8, 134217728
  %.not = icmp eq i64 %9, 0
  br i1 %.not, label %10, label %12

10:                                               ; preds = %1
  %11 = tail call noundef zeroext i1 @_ZN5clang14FrontendAction22shouldEraseOutputFilesEv(ptr noundef nonnull align 8 dereferenceable(104) %0) #21
  br label %12

12:                                               ; preds = %10, %1
  %13 = phi i1 [ false, %1 ], [ %11, %10 ]
  ret i1 %13
}